(lp0
S'Dreamhack Winter 2012'
p1
aS'Blizzard Europe Finals'
p2
aS'Blizzard Nordic National'
p3
aS'DreamHack Summer 2012'
p4
aS'Stockholm 2.0'
p5
aS'DreamHack Winter 2011'
p6
aS'DreamHack Summer 2011'
p7
aS'DreamHack Winter 2010'
p8
aS'Dreamhack Skellefte\xc3\xa5 VI'
p9
aS'DreamHack Summer 2010'
p10
aS'DreamHack Skellefte\xc3\xa5 V'
p11
aS'DreamHack Winter 2009'
p12
aS'DreamHack Skellefte\xc3\xa5 IV'
p13
aS'DreamHack Stockholm'
p14
aS'DreamHack Summer 09'
p15
aS'DreamHack G\xc3\xb6teborg'
p16
aS'DreamHack Skellefte\xc3\xa5 III'
p17
aS'Dreamhack Winter 08'
p18
aS'Dreamhack Skellefte\xc3\xa5 II'
p19
aS'DH Nordstan'
p20
aS'Dreamhack Summer 08'
p21
aS'Dreamhack G\xc3\xb6teborg 08'
p22
aS'Dreamhack Skellefte\xc3\xa5'
p23
aS'Dreamhack Winter 07'
p24
aS'Dreamhack Summer 07'
p25
aS'Dreamhack Winter 06'
p26
aS'Dreamhack Summer 06'
p27
aS'Dreamhack Winter 05'
p28
aS'Dreamhack Summer 05'
p29
aS'Dreamhack Winter 04'
p30
aS'Dreamhack Summer 04'
p31
aS'Dreamhack Winter 03'
p32
aS'Dreamhack Summer 03'
p33
aS'Dreamhack Winter 02'
p34
aS'Dreamhack Summer 02'
p35
aS'Dreamhack 01'
p36
aS'Dreamhack 00'
p37
aS'Dreamhack 99'
p38
aS'Dreamhack 98'
p39
aS'Dreamhack 97'
p40
a.