(dp0
S'stored_conversations'
p1
(dp2
S'Summalajnen@irc.se.quakenet.org'
p3
(lp4
sS'L-J@irc.se.quakenet.org'
p5
(lp6
sS'starfighter@irc.se.quakenet.org'
p7
(lp8
sS'DoXiD@irc.se.quakenet.org'
p9
(lp10
S'S\xc3\xa5d\xc3\xa4r!\nDu ska inte rapportera p\xc3\xa5 detta praktikantfan\n:D\nJag har problem med min dator..\nsoftware\n'
p11
aS'Jag har problem med min dator..\nsoftware\n'
p12
aS'Pew pow kapow\nJag har problem med min dator..\ngrr\ntest\nsoftware\n'
p13
aS'kapow\n:D\nNice\nPraktikanten kan h\xc3\xa5lla koll p\xc3\xa5 konversationer :P\nTrodde det var en bugg men den h\xc3\xa5ller koll p\xc3\xa5 dom \xc3\xa4ven efter omstarter :P\nmin dator startar inte, beh\xc3\xb6ver hj\xc3\xa4lp med den!\nhardware\n'
p14
assS'conversation'
p15
(dp16
g3
S'STENFRYS: hahahahahahha\n'
p17
sg5
S'hehe :) \nnice indeed :) \n'
p18
sg7
S'idag var visst helt fel dag att va inne p\xc3\xa5 support k\xc3\xa4nner jag :P fattar absolut noll :D\ngillar sidan p\xc3\xa5 fb och etech har ber\xc3\xa4ttat vad det \xc3\xa4r och hur det kommer funka men jag \xc3\xa4r lite blond :P\nnot on the inside :P\n'
p19
sS'DoXiD@irc.se.quakenet.org'
p20
S':D\nHaha :P\nDH praktikanten (facebook: Dreamhack Praktikanten) \xc3\xa4r v\xc3\xa5rat \xc3\xa4rende system :)\nDen lyssnar efter fel, hittar den ett fel (case) s\xc3\xa5 l\xc3\xa4gger den in dig i en k\xc3\xb6, n\xc3\xa4r det \xc3\xa4r din tur s\xc3\xa5 kommer den skriva ett PM till dig :)\nHaha :P \xc3\xa4r inte du toksvart?\n'
p21
ssS'flags'
p22
(dp23
S'dblock'
p24
I01
ssS'prio'
p25
NsS'backupcounter'
p26
I4
s.